target datalayout = "e-m:e-p270:32:32-p271:32:32-p272:64:64-i64:64-i128:128-f80:128-n8:16:32:64-S128"
target triple = "x86_64-pc-linux-gnu"

%struct.AlphaFunc = type { %struct.AlphaOperands, %struct.AlphaOperands }
%struct.AlphaOperands = type { i8, i8, i16 }
%struct.SurfaceDataRasInfo = type { %struct.SurfaceDataBounds, ptr, i32, i32, i32, i32, ptr, ptr, ptr, ptr, ptr, ptr, i32, %union.anon.0 }
%struct.SurfaceDataBounds = type { i32, i32, i32, i32 }
%union.anon.0 = type { ptr, [56 x i8] }
%struct._CompositeInfo = type { i32, %union.anon.1, i32 }
%union.anon.1 = type { float }

@AlphaRules = external global [0 x %struct.AlphaFunc], align 2

; Function Attrs: nounwind uwtable
define hidden void @UshortGrayAlphaMaskFill(ptr noundef %0, ptr noundef %1, i32 noundef %2, i32 noundef %3, i32 noundef %4, i32 noundef %5, i32 noundef %6, ptr noundef %7, ptr noundef %8, ptr noundef %9) #1 {
  %11 = alloca ptr, align 8
  %12 = alloca ptr, align 8
  %13 = alloca i32, align 4
  %14 = alloca i32, align 4
  %15 = alloca i32, align 4
  %16 = alloca i32, align 4
  %17 = alloca i32, align 4
  %18 = alloca ptr, align 8
  %19 = alloca ptr, align 8
  %20 = alloca ptr, align 8
  %21 = alloca i32, align 4
  %22 = alloca i32, align 4
  %23 = alloca i32, align 4
  %24 = alloca i32, align 4
  %25 = alloca i32, align 4
  %26 = alloca i32, align 4
  %27 = alloca i32, align 4
  %28 = alloca i8, align 1
  %29 = alloca ptr, align 8
  %30 = alloca i32, align 4
  %31 = alloca i32, align 4
  %32 = alloca i32, align 4
  %33 = alloca i32, align 4
  %34 = alloca i32, align 4
  %35 = alloca i32, align 4
  %36 = alloca i32, align 4
  %37 = alloca i32, align 4
  %38 = alloca i32, align 4
  %39 = alloca i32, align 4
  %40 = alloca i32, align 4
  %41 = alloca i32, align 4
  %42 = alloca i32, align 4
  %43 = alloca i32, align 4
  store ptr %0, ptr %11, align 8
  store ptr %1, ptr %12, align 8
  store i32 %2, ptr %13, align 4
  store i32 %3, ptr %14, align 4
  store i32 %4, ptr %15, align 4
  store i32 %5, ptr %16, align 4
  store i32 %6, ptr %17, align 4
  store ptr %7, ptr %18, align 8
  store ptr %8, ptr %19, align 8
  store ptr %9, ptr %20, align 8
  store i32 65535, ptr %21, align 4
  store i32 0, ptr %24, align 4
  %44 = load ptr, ptr %18, align 8
  %45 = getelementptr inbounds %struct.SurfaceDataRasInfo, ptr %44, i32 0, i32 4
  %46 = load i32, ptr %45, align 8
  store i32 %46, ptr %27, align 4
  %47 = load ptr, ptr %11, align 8
  store ptr %47, ptr %29, align 8
  br label %48

48:                                               ; preds = %10
  br label %49

49:                                               ; preds = %48
  %50 = load i32, ptr %17, align 4
  %51 = and i32 %50, 255
  store i32 %51, ptr %38, align 4
  %52 = load i32, ptr %17, align 4
  %53 = ashr i32 %52, 8
  %54 = and i32 %53, 255
  store i32 %54, ptr %37, align 4
  %55 = load i32, ptr %17, align 4
  %56 = ashr i32 %55, 16
  %57 = and i32 %56, 255
  store i32 %57, ptr %36, align 4
  %58 = load i32, ptr %17, align 4
  %59 = ashr i32 %58, 24
  %60 = and i32 %59, 255
  store i32 %60, ptr %22, align 4
  br label %61

61:                                               ; preds = %49
  %62 = load i32, ptr %36, align 4
  %63 = mul nsw i32 19672, %62
  %64 = load i32, ptr %37, align 4
  %65 = mul nsw i32 38621, %64
  %66 = add nsw i32 %63, %65
  %67 = load i32, ptr %38, align 4
  %68 = mul nsw i32 7500, %67
  %69 = add nsw i32 %66, %68
  %70 = sdiv i32 %69, 256
  %71 = trunc i32 %70 to i16
  %72 = zext i16 %71 to i32
  store i32 %72, ptr %23, align 4
  %73 = load i32, ptr %22, align 4
  %74 = shl i32 %73, 8
  %75 = load i32, ptr %22, align 4
  %76 = add i32 %74, %75
  store i32 %76, ptr %22, align 4
  br label %77

77:                                               ; preds = %61
  %78 = load i32, ptr %22, align 4
  %79 = icmp ne i32 %78, 65535
  br i1 %79, label %80, label %85

80:                                               ; preds = %77
  %81 = load i32, ptr %22, align 4
  %82 = load i32, ptr %23, align 4
  %83 = mul i32 %81, %82
  %84 = udiv i32 %83, 65535
  store i32 %84, ptr %23, align 4
  br label %85

85:                                               ; preds = %80, %77
  br label %86

86:                                               ; preds = %85
  %87 = load ptr, ptr %20, align 8
  %88 = getelementptr inbounds %struct._CompositeInfo, ptr %87, i32 0, i32 0
  %89 = load i32, ptr %88, align 4
  %90 = sext i32 %89 to i64
  %91 = getelementptr inbounds [0 x %struct.AlphaFunc], ptr @AlphaRules, i64 0, i64 %90
  %92 = getelementptr inbounds %struct.AlphaFunc, ptr %91, i32 0, i32 0
  %93 = getelementptr inbounds %struct.AlphaOperands, ptr %92, i32 0, i32 1
  %94 = load i8, ptr %93, align 1
  %95 = zext i8 %94 to i32
  %96 = shl i32 %95, 8
  %97 = load ptr, ptr %20, align 8
  %98 = getelementptr inbounds %struct._CompositeInfo, ptr %97, i32 0, i32 0
  %99 = load i32, ptr %98, align 4
  %100 = sext i32 %99 to i64
  %101 = getelementptr inbounds [0 x %struct.AlphaFunc], ptr @AlphaRules, i64 0, i64 %100
  %102 = getelementptr inbounds %struct.AlphaFunc, ptr %101, i32 0, i32 0
  %103 = getelementptr inbounds %struct.AlphaOperands, ptr %102, i32 0, i32 1
  %104 = load i8, ptr %103, align 1
  %105 = zext i8 %104 to i32
  %106 = add nsw i32 %96, %105
  store i32 %106, ptr %30, align 4
  %107 = load ptr, ptr %20, align 8
  %108 = getelementptr inbounds %struct._CompositeInfo, ptr %107, i32 0, i32 0
  %109 = load i32, ptr %108, align 4
  %110 = sext i32 %109 to i64
  %111 = getelementptr inbounds [0 x %struct.AlphaFunc], ptr @AlphaRules, i64 0, i64 %110
  %112 = getelementptr inbounds %struct.AlphaFunc, ptr %111, i32 0, i32 0
  %113 = getelementptr inbounds %struct.AlphaOperands, ptr %112, i32 0, i32 2
  %114 = load i16, ptr %113, align 2
  %115 = sext i16 %114 to i32
  store i32 %115, ptr %31, align 4
  %116 = load ptr, ptr %20, align 8
  %117 = getelementptr inbounds %struct._CompositeInfo, ptr %116, i32 0, i32 0
  %118 = load i32, ptr %117, align 4
  %119 = sext i32 %118 to i64
  %120 = getelementptr inbounds [0 x %struct.AlphaFunc], ptr @AlphaRules, i64 0, i64 %119
  %121 = getelementptr inbounds %struct.AlphaFunc, ptr %120, i32 0, i32 0
  %122 = getelementptr inbounds %struct.AlphaOperands, ptr %121, i32 0, i32 0
  %123 = load i8, ptr %122, align 2
  %124 = zext i8 %123 to i32
  %125 = shl i32 %124, 8
  %126 = load ptr, ptr %20, align 8
  %127 = getelementptr inbounds %struct._CompositeInfo, ptr %126, i32 0, i32 0
  %128 = load i32, ptr %127, align 4
  %129 = sext i32 %128 to i64
  %130 = getelementptr inbounds [0 x %struct.AlphaFunc], ptr @AlphaRules, i64 0, i64 %129
  %131 = getelementptr inbounds %struct.AlphaFunc, ptr %130, i32 0, i32 0
  %132 = getelementptr inbounds %struct.AlphaOperands, ptr %131, i32 0, i32 0
  %133 = load i8, ptr %132, align 2
  %134 = zext i8 %133 to i32
  %135 = add nsw i32 %125, %134
  %136 = load i32, ptr %31, align 4
  %137 = sub nsw i32 %135, %136
  store i32 %137, ptr %32, align 4
  br label %138

138:                                              ; preds = %86
  br label %139

139:                                              ; preds = %138
  %140 = load ptr, ptr %20, align 8
  %141 = getelementptr inbounds %struct._CompositeInfo, ptr %140, i32 0, i32 0
  %142 = load i32, ptr %141, align 4
  %143 = sext i32 %142 to i64
  %144 = getelementptr inbounds [0 x %struct.AlphaFunc], ptr @AlphaRules, i64 0, i64 %143
  %145 = getelementptr inbounds %struct.AlphaFunc, ptr %144, i32 0, i32 1
  %146 = getelementptr inbounds %struct.AlphaOperands, ptr %145, i32 0, i32 1
  %147 = load i8, ptr %146, align 1
  %148 = zext i8 %147 to i32
  %149 = shl i32 %148, 8
  %150 = load ptr, ptr %20, align 8
  %151 = getelementptr inbounds %struct._CompositeInfo, ptr %150, i32 0, i32 0
  %152 = load i32, ptr %151, align 4
  %153 = sext i32 %152 to i64
  %154 = getelementptr inbounds [0 x %struct.AlphaFunc], ptr @AlphaRules, i64 0, i64 %153
  %155 = getelementptr inbounds %struct.AlphaFunc, ptr %154, i32 0, i32 1
  %156 = getelementptr inbounds %struct.AlphaOperands, ptr %155, i32 0, i32 1
  %157 = load i8, ptr %156, align 1
  %158 = zext i8 %157 to i32
  %159 = add nsw i32 %149, %158
  store i32 %159, ptr %33, align 4
  %160 = load ptr, ptr %20, align 8
  %161 = getelementptr inbounds %struct._CompositeInfo, ptr %160, i32 0, i32 0
  %162 = load i32, ptr %161, align 4
  %163 = sext i32 %162 to i64
  %164 = getelementptr inbounds [0 x %struct.AlphaFunc], ptr @AlphaRules, i64 0, i64 %163
  %165 = getelementptr inbounds %struct.AlphaFunc, ptr %164, i32 0, i32 1
  %166 = getelementptr inbounds %struct.AlphaOperands, ptr %165, i32 0, i32 2
  %167 = load i16, ptr %166, align 2
  %168 = sext i16 %167 to i32
  store i32 %168, ptr %34, align 4
  %169 = load ptr, ptr %20, align 8
  %170 = getelementptr inbounds %struct._CompositeInfo, ptr %169, i32 0, i32 0
  %171 = load i32, ptr %170, align 4
  %172 = sext i32 %171 to i64
  %173 = getelementptr inbounds [0 x %struct.AlphaFunc], ptr @AlphaRules, i64 0, i64 %172
  %174 = getelementptr inbounds %struct.AlphaFunc, ptr %173, i32 0, i32 1
  %175 = getelementptr inbounds %struct.AlphaOperands, ptr %174, i32 0, i32 0
  %176 = load i8, ptr %175, align 2
  %177 = zext i8 %176 to i32
  %178 = shl i32 %177, 8
  %179 = load ptr, ptr %20, align 8
  %180 = getelementptr inbounds %struct._CompositeInfo, ptr %179, i32 0, i32 0
  %181 = load i32, ptr %180, align 4
  %182 = sext i32 %181 to i64
  %183 = getelementptr inbounds [0 x %struct.AlphaFunc], ptr @AlphaRules, i64 0, i64 %182
  %184 = getelementptr inbounds %struct.AlphaFunc, ptr %183, i32 0, i32 1
  %185 = getelementptr inbounds %struct.AlphaOperands, ptr %184, i32 0, i32 0
  %186 = load i8, ptr %185, align 2
  %187 = zext i8 %186 to i32
  %188 = add nsw i32 %178, %187
  %189 = load i32, ptr %34, align 4
  %190 = sub nsw i32 %188, %189
  store i32 %190, ptr %35, align 4
  br label %191

191:                                              ; preds = %139
  %192 = load ptr, ptr %12, align 8
  %193 = icmp ne ptr %192, null
  br i1 %193, label %202, label %194

194:                                              ; preds = %191
  %195 = load i32, ptr %33, align 4
  %196 = load i32, ptr %35, align 4
  %197 = or i32 %195, %196
  %198 = icmp eq i32 %197, 0
  br i1 %198, label %199, label %202

199:                                              ; preds = %194
  %200 = load i32, ptr %30, align 4
  %201 = icmp ne i32 %200, 0
  br label %202

202:                                              ; preds = %199, %194, %191
  %203 = phi i1 [ true, %194 ], [ true, %191 ], [ %201, %199 ]
  %204 = zext i1 %203 to i32
  %205 = trunc i32 %204 to i8
  store i8 %205, ptr %28, align 1
  %206 = load i32, ptr %22, align 4
  %207 = load i32, ptr %33, align 4
  %208 = and i32 %206, %207
  %209 = load i32, ptr %34, align 4
  %210 = xor i32 %208, %209
  %211 = load i32, ptr %35, align 4
  %212 = add i32 %210, %211
  store i32 %212, ptr %25, align 4
  store i32 %212, ptr %26, align 4
  %213 = load i32, ptr %15, align 4
  %214 = mul nsw i32 %213, 2
  %215 = load i32, ptr %27, align 4
  %216 = sub nsw i32 %215, %214
  store i32 %216, ptr %27, align 4
  %217 = load i32, ptr %15, align 4
  %218 = load i32, ptr %14, align 4
  %219 = sub nsw i32 %218, %217
  store i32 %219, ptr %14, align 4
  %220 = load ptr, ptr %12, align 8
  %221 = icmp ne ptr %220, null
  br i1 %221, label %222, label %227

222:                                              ; preds = %202
  %223 = load i32, ptr %13, align 4
  %224 = load ptr, ptr %12, align 8
  %225 = sext i32 %223 to i64
  %226 = getelementptr inbounds i8, ptr %224, i64 %225
  store ptr %226, ptr %12, align 8
  br label %227

227:                                              ; preds = %222, %202
  br label %228

228:                                              ; preds = %376, %227
  %229 = load i32, ptr %15, align 4
  store i32 %229, ptr %39, align 4
  br label %230

230:                                              ; preds = %355, %228
  %231 = load ptr, ptr %12, align 8
  %232 = icmp ne ptr %231, null
  br i1 %232, label %233, label %251

233:                                              ; preds = %230
  %234 = load ptr, ptr %12, align 8
  %235 = getelementptr inbounds i8, ptr %234, i32 1
  store ptr %235, ptr %12, align 8
  %236 = load i8, ptr %234, align 1
  %237 = zext i8 %236 to i32
  store i32 %237, ptr %21, align 4
  %238 = load i32, ptr %21, align 4
  %239 = icmp ne i32 %238, 0
  br i1 %239, label %245, label %240

240:                                              ; preds = %233
  %241 = load ptr, ptr %29, align 8
  %242 = ptrtoint ptr %241 to i64
  %243 = add nsw i64 %242, 2
  %244 = inttoptr i64 %243 to ptr
  store ptr %244, ptr %29, align 8
  br label %355

245:                                              ; preds = %233
  %246 = load i32, ptr %21, align 4
  %247 = shl i32 %246, 8
  %248 = load i32, ptr %21, align 4
  %249 = add i32 %247, %248
  store i32 %249, ptr %21, align 4
  %250 = load i32, ptr %26, align 4
  store i32 %250, ptr %25, align 4
  br label %251

251:                                              ; preds = %245, %230
  %252 = load i8, ptr %28, align 1
  %253 = icmp ne i8 %252, 0
  br i1 %253, label %254, label %255

254:                                              ; preds = %251
  store i32 65535, ptr %24, align 4
  br label %255

255:                                              ; preds = %254, %251
  %256 = load i32, ptr %24, align 4
  %257 = load i32, ptr %30, align 4
  %258 = and i32 %256, %257
  %259 = load i32, ptr %31, align 4
  %260 = xor i32 %258, %259
  %261 = load i32, ptr %32, align 4
  %262 = add i32 %260, %261
  store i32 %262, ptr %42, align 4
  %263 = load i32, ptr %21, align 4
  %264 = icmp ne i32 %263, 65535
  br i1 %264, label %265, label %277

265:                                              ; preds = %255
  %266 = load i32, ptr %21, align 4
  %267 = load i32, ptr %42, align 4
  %268 = mul i32 %266, %267
  %269 = udiv i32 %268, 65535
  store i32 %269, ptr %42, align 4
  %270 = load i32, ptr %21, align 4
  %271 = sub i32 65535, %270
  %272 = load i32, ptr %21, align 4
  %273 = load i32, ptr %25, align 4
  %274 = mul i32 %272, %273
  %275 = udiv i32 %274, 65535
  %276 = add i32 %271, %275
  store i32 %276, ptr %25, align 4
  br label %277

277:                                              ; preds = %265, %255
  %278 = load i32, ptr %42, align 4
  %279 = icmp ne i32 %278, 0
  br i1 %279, label %280, label %296

280:                                              ; preds = %277
  %281 = load i32, ptr %42, align 4
  %282 = icmp eq i32 %281, 65535
  br i1 %282, label %283, label %286

283:                                              ; preds = %280
  %284 = load i32, ptr %22, align 4
  store i32 %284, ptr %40, align 4
  %285 = load i32, ptr %23, align 4
  store i32 %285, ptr %41, align 4
  br label %295

286:                                              ; preds = %280
  %287 = load i32, ptr %42, align 4
  %288 = load i32, ptr %22, align 4
  %289 = mul i32 %287, %288
  %290 = udiv i32 %289, 65535
  store i32 %290, ptr %40, align 4
  %291 = load i32, ptr %42, align 4
  %292 = load i32, ptr %23, align 4
  %293 = mul i32 %291, %292
  %294 = udiv i32 %293, 65535
  store i32 %294, ptr %41, align 4
  br label %295

295:                                              ; preds = %286, %283
  br label %305

296:                                              ; preds = %277
  %297 = load i32, ptr %25, align 4
  %298 = icmp eq i32 %297, 65535
  br i1 %298, label %299, label %304

299:                                              ; preds = %296
  %300 = load ptr, ptr %29, align 8
  %301 = ptrtoint ptr %300 to i64
  %302 = add nsw i64 %301, 2
  %303 = inttoptr i64 %302 to ptr
  store ptr %303, ptr %29, align 8
  br label %355

304:                                              ; preds = %296
  store i32 0, ptr %40, align 4
  store i32 0, ptr %41, align 4
  br label %305

305:                                              ; preds = %304, %295
  %306 = load i32, ptr %25, align 4
  %307 = icmp ne i32 %306, 0
  br i1 %307, label %308, label %335

308:                                              ; preds = %305
  %309 = load i32, ptr %25, align 4
  %310 = load i32, ptr %24, align 4
  %311 = mul i32 %309, %310
  %312 = udiv i32 %311, 65535
  store i32 %312, ptr %24, align 4
  %313 = load i32, ptr %24, align 4
  %314 = load i32, ptr %40, align 4
  %315 = add i32 %314, %313
  store i32 %315, ptr %40, align 4
  %316 = load i32, ptr %24, align 4
  %317 = icmp ne i32 %316, 0
  br i1 %317, label %318, label %334

318:                                              ; preds = %308
  %319 = load ptr, ptr %29, align 8
  %320 = getelementptr inbounds i16, ptr %319, i64 0
  %321 = load i16, ptr %320, align 2
  %322 = zext i16 %321 to i32
  store i32 %322, ptr %43, align 4
  %323 = load i32, ptr %24, align 4
  %324 = icmp ne i32 %323, 65535
  br i1 %324, label %325, label %330

325:                                              ; preds = %318
  %326 = load i32, ptr %24, align 4
  %327 = load i32, ptr %43, align 4
  %328 = mul i32 %326, %327
  %329 = udiv i32 %328, 65535
  store i32 %329, ptr %43, align 4
  br label %330

330:                                              ; preds = %325, %318
  %331 = load i32, ptr %43, align 4
  %332 = load i32, ptr %41, align 4
  %333 = add i32 %332, %331
  store i32 %333, ptr %41, align 4
  br label %334

334:                                              ; preds = %330, %308
  br label %335

335:                                              ; preds = %334, %305
  %336 = load i32, ptr %40, align 4
  %337 = icmp ne i32 %336, 0
  br i1 %337, label %338, label %346

338:                                              ; preds = %335
  %339 = load i32, ptr %40, align 4
  %340 = icmp ult i32 %339, 65535
  br i1 %340, label %341, label %346

341:                                              ; preds = %338
  %342 = load i32, ptr %41, align 4
  %343 = mul i32 %342, 65535
  %344 = load i32, ptr %40, align 4
  %345 = udiv i32 %343, %344
  store i32 %345, ptr %41, align 4
  br label %346

346:                                              ; preds = %341, %338, %335
  %347 = load i32, ptr %41, align 4
  %348 = trunc i32 %347 to i16
  %349 = load ptr, ptr %29, align 8
  %350 = getelementptr inbounds i16, ptr %349, i64 0
  store i16 %348, ptr %350, align 2
  %351 = load ptr, ptr %29, align 8
  %352 = ptrtoint ptr %351 to i64
  %353 = add nsw i64 %352, 2
  %354 = inttoptr i64 %353 to ptr
  store ptr %354, ptr %29, align 8
  br label %355

355:                                              ; preds = %346, %299, %240
  %356 = load i32, ptr %39, align 4
  %357 = add nsw i32 %356, -1
  store i32 %357, ptr %39, align 4
  %358 = icmp sgt i32 %357, 0
  br i1 %358, label %230, label %359, !llvm.loop !55

359:                                              ; preds = %355
  %360 = load ptr, ptr %29, align 8
  %361 = ptrtoint ptr %360 to i64
  %362 = load i32, ptr %27, align 4
  %363 = sext i32 %362 to i64
  %364 = add nsw i64 %361, %363
  %365 = inttoptr i64 %364 to ptr
  store ptr %365, ptr %29, align 8
  %366 = load ptr, ptr %12, align 8
  %367 = icmp ne ptr %366, null
  br i1 %367, label %368, label %375

368:                                              ; preds = %359
  %369 = load ptr, ptr %12, align 8
  %370 = ptrtoint ptr %369 to i64
  %371 = load i32, ptr %14, align 4
  %372 = sext i32 %371 to i64
  %373 = add nsw i64 %370, %372
  %374 = inttoptr i64 %373 to ptr
  store ptr %374, ptr %12, align 8
  br label %375

375:                                              ; preds = %368, %359
  br label %376

376:                                              ; preds = %375
  %377 = load i32, ptr %16, align 4
  %378 = add nsw i32 %377, -1
  store i32 %378, ptr %16, align 4
  %379 = icmp sgt i32 %378, 0
  br i1 %379, label %228, label %380, !llvm.loop !56

380:                                              ; preds = %376
  ret void
}