; Function Attrs: nofree norecurse nosync nounwind memory(readwrite, inaccessiblemem: none) uwtable
define hidden void @UshortGrayAlphaMaskFill(ptr noundef %0, ptr noundef %1, i32 noundef %2, i32 noundef %3, i32 noundef %4, i32 noundef %5, i32 noundef %6, ptr nocapture noundef readonly %7, ptr nocapture readnone %8, ptr nocapture noundef readonly %9) #1 {
  %11 = getelementptr inbounds i8, ptr %7, i64 32
  %12 = load i32, ptr %11, align 8
  %13 = and i32 %6, 255
  %14 = lshr i32 %6, 8
  %15 = and i32 %14, 255
  %16 = lshr i32 %6, 16
  %17 = and i32 %16, 255
  %18 = lshr i32 %6, 24
  %19 = mul nuw nsw i32 %17, 19672
  %20 = mul nuw nsw i32 %15, 38621
  %21 = mul nuw nsw i32 %13, 7500
  %22 = add nuw nsw i32 %20, %21
  %23 = add nuw nsw i32 %22, %19
  %24 = lshr i32 %23, 8
  %25 = mul nuw nsw i32 %18, 257
  %.not = icmp eq i32 %18, 255
  br i1 %.not, label %29, label %26

26:                                               ; preds = %10
  %27 = mul nuw i32 %24, %25
  %28 = udiv i32 %27, 65535
  br label %29

29:                                               ; preds = %10, %26
  %.0109 = phi i32 [ %28, %26 ], [ %24, %10 ]
  %30 = load i32, ptr %9, align 4
  %31 = sext i32 %30 to i64
  %32 = getelementptr inbounds [0 x %struct.AlphaFunc], ptr @AlphaRules, i64 0, i64 %31
  %33 = getelementptr inbounds i8, ptr %32, i64 1
  %34 = load i8, ptr %33, align 1
  %35 = zext i8 %34 to i32
  %36 = mul nuw nsw i32 %35, 257
  %37 = getelementptr inbounds i8, ptr %32, i64 2
  %38 = load i16, ptr %37, align 2
  %39 = sext i16 %38 to i32
  %40 = load i8, ptr %32, align 2
  %41 = zext i8 %40 to i32
  %42 = mul nuw nsw i32 %41, 257
  %43 = sub nsw i32 %42, %39
  %44 = getelementptr inbounds i8, ptr %32, i64 4
  %45 = getelementptr inbounds i8, ptr %32, i64 5
  %46 = load i8, ptr %45, align 1
  %47 = zext i8 %46 to i32
  %48 = mul nuw nsw i32 %47, 257
  %49 = getelementptr inbounds i8, ptr %32, i64 6
  %50 = load i16, ptr %49, align 2
  %51 = sext i16 %50 to i32
  %52 = load i8, ptr %44, align 2
  %53 = zext i8 %52 to i32
  %54 = mul nuw nsw i32 %53, 257
  %55 = sub nsw i32 %54, %51
  %.not132 = icmp ne ptr %1, null
  %56 = or i32 %55, %48
  %57 = icmp ne i32 %56, 0
  %or.cond142.not = select i1 %.not132, i1 true, i1 %57
  %58 = icmp ne i8 %34, 0
  %spec.select143 = select i1 %or.cond142.not, i1 true, i1 %58
  %59 = and i32 %48, %25
  %60 = xor i32 %59, %51
  %61 = add nsw i32 %55, %60
  %62 = shl nsw i32 %4, 1
  %63 = sub nsw i32 %12, %62
  %64 = sub nsw i32 %3, %4
  %65 = sext i32 %2 to i64
  %66 = getelementptr inbounds i8, ptr %1, i64 %65
  %.0101 = select i1 %.not132, ptr %66, ptr null
  %67 = sext i32 %63 to i64
  %68 = sext i32 %64 to i64
  br label %69

69:                                               ; preds = %118, %29
  %.0120 = phi ptr [ %0, %29 ], [ %120, %118 ]
  %.0115 = phi i32 [ %61, %29 ], [ %.4119, %118 ]
  %.0110 = phi i32 [ 0, %29 ], [ %.4114, %118 ]
  %.0105 = phi i32 [ 65535, %29 ], [ %.3108, %118 ]
  %.0104 = phi i32 [ %5, %29 ], [ %124, %118 ]
  %.1102 = phi ptr [ %.0101, %29 ], [ %.5, %118 ]
  br label %70

70:                                               ; preds = %115, %69
  %.1121 = phi ptr [ %.0120, %69 ], [ %.2122, %115 ]
  %.1116 = phi i32 [ %.0115, %69 ], [ %.4119, %115 ]
  %.1111 = phi i32 [ %.0110, %69 ], [ %.4114, %115 ]
  %.1106 = phi i32 [ %.0105, %69 ], [ %.3108, %115 ]
  %.2103 = phi ptr [ %.1102, %69 ], [ %.4, %115 ]
  %.0100 = phi i32 [ %4, %69 ], [ %116, %115 ]
  %.not133 = icmp eq ptr %.2103, null
  br i1 %.not133, label %77, label %71

71:                                               ; preds = %70
  %72 = getelementptr inbounds i8, ptr %.2103, i64 1
  %73 = load i8, ptr %.2103, align 1
  %.not134 = icmp eq i8 %73, 0
  br i1 %.not134, label %115, label %74

74:                                               ; preds = %71
  %75 = zext i8 %73 to i32
  %76 = mul nuw nsw i32 %75, 257
  br label %77

77:                                               ; preds = %74, %70
  %.2117 = phi i32 [ %61, %74 ], [ %.1116, %70 ]
  %.2107 = phi i32 [ %76, %74 ], [ %.1106, %70 ]
  %.3 = phi ptr [ %72, %74 ], [ null, %70 ]
  %spec.select = select i1 %spec.select143, i32 65535, i32 %.1111
  %78 = and i32 %spec.select, %36
  %79 = xor i32 %78, %39
  %80 = add nsw i32 %79, %43
  %.not135 = icmp eq i32 %.2107, 65535
  br i1 %.not135, label %87, label %81

81:                                               ; preds = %77
  %82 = mul i32 %.2107, %80
  %83 = udiv i32 %82, 65535
  %84 = mul i32 %.2107, %.2117
  %85 = udiv i32 %84, 65535
  %reass.sub145 = sub nsw i32 %85, %.2107
  %86 = add nsw i32 %reass.sub145, 65535
  br label %87

87:                                               ; preds = %81, %77
  %.3118 = phi i32 [ %86, %81 ], [ %.2117, %77 ]
  %.096 = phi i32 [ %83, %81 ], [ %80, %77 ]
  switch i32 %.096, label %88 [
    i32 0, label %93
    i32 65535, label %95
  ]

88:                                               ; preds = %87
  %89 = mul i32 %.096, %25
  %90 = udiv i32 %89, 65535
  %91 = mul i32 %.096, %.0109
  %92 = udiv i32 %91, 65535
  br label %95

93:                                               ; preds = %87
  %94 = icmp eq i32 %.3118, 65535
  br i1 %94, label %115, label %95

95:                                               ; preds = %93, %87, %88
  %.098 = phi i32 [ %90, %88 ], [ %25, %87 ], [ 0, %93 ]
  %.097 = phi i32 [ %92, %88 ], [ %.0109, %87 ], [ 0, %93 ]
  %.not137 = icmp eq i32 %.3118, 0
  br i1 %.not137, label %108, label %96

96:                                               ; preds = %95
  %97 = mul i32 %.3118, %spec.select
  %98 = udiv i32 %97, 65535
  %99 = add nuw nsw i32 %.098, %98
  %.not138 = icmp ult i32 %97, 65535
  br i1 %.not138, label %108, label %100

100:                                              ; preds = %96
  %101 = load i16, ptr %.1121, align 2
  %102 = zext i16 %101 to i32
  %.off = add i32 %97, 131071
  %.not139 = icmp ult i32 %.off, 65535
  br i1 %.not139, label %106, label %103

103:                                              ; preds = %100
  %104 = mul nuw i32 %98, %102
  %105 = udiv i32 %104, 65535
  br label %106

106:                                              ; preds = %103, %100
  %.0 = phi i32 [ %105, %103 ], [ %102, %100 ]
  %107 = add nuw nsw i32 %.0, %.097
  br label %108

108:                                              ; preds = %96, %106, %95
  %.3113 = phi i32 [ %98, %106 ], [ 0, %96 ], [ %spec.select, %95 ]
  %.199 = phi i32 [ %99, %106 ], [ %99, %96 ], [ %.098, %95 ]
  %.1 = phi i32 [ %107, %106 ], [ %.097, %96 ], [ %.097, %95 ]
  %109 = add nsw i32 %.199, -1
  %or.cond = icmp ult i32 %109, 65534
  br i1 %or.cond, label %110, label %113

110:                                              ; preds = %108
  %111 = mul i32 %.1, 65535
  %112 = udiv i32 %111, %.199
  br label %113

113:                                              ; preds = %110, %108
  %.2 = phi i32 [ %112, %110 ], [ %.1, %108 ]
  %114 = trunc i32 %.2 to i16
  store i16 %114, ptr %.1121, align 2
  br label %115

115:                                              ; preds = %93, %71, %113
  %.4119 = phi i32 [ %.3118, %113 ], [ %.1116, %71 ], [ 65535, %93 ]
  %.4114 = phi i32 [ %.3113, %113 ], [ %.1111, %71 ], [ %spec.select, %93 ]
  %.3108 = phi i32 [ %.2107, %113 ], [ 0, %71 ], [ %.2107, %93 ]
  %.4 = phi ptr [ %.3, %113 ], [ %72, %71 ], [ %.3, %93 ]
  %.2122.in.in = ptrtoint ptr %.1121 to i64
  %.2122.in = add nsw i64 %.2122.in.in, 2
  %.2122 = inttoptr i64 %.2122.in to ptr
  %116 = add nsw i32 %.0100, -1
  %117 = icmp sgt i32 %.0100, 1
  br i1 %117, label %70, label %118, !llvm.loop !51

118:                                              ; preds = %115
  %119 = add nsw i64 %.2122.in, %67
  %120 = inttoptr i64 %119 to ptr
  %.not140 = icmp eq ptr %.4, null
  %121 = ptrtoint ptr %.4 to i64
  %122 = add nsw i64 %121, %68
  %123 = inttoptr i64 %122 to ptr
  %.5 = select i1 %.not140, ptr null, ptr %123
  %124 = add nsw i32 %.0104, -1
  %125 = icmp sgt i32 %.0104, 1
  br i1 %125, label %69, label %126, !llvm.loop !52

126:                                              ; preds = %118
  ret void
}